; ModuleID = '56/997.c'
source_filename = "56/997.c"
target datalayout = "e-m:e-p270:32:32-p271:32:32-p272:64:64-i64:64-f80:128-n8:16:32:64-S128"
target triple = "x86_64-pc-linux-gnu"

@.str = private unnamed_addr constant [3 x i8] c"%d\00", align 1

; Function Attrs: noinline nounwind uwtable
define dso_local i32 @main() #0 {
  %1 = alloca i32, align 4
  %2 = alloca i32, align 4
  %3 = alloca i32, align 4
  %4 = alloca i32, align 4
  %5 = alloca i32, align 4
  %6 = alloca i32, align 4
  %7 = alloca i32, align 4
  %8 = alloca i32, align 4
  %9 = alloca i32, align 4
  store i32 0, i32* %1, align 4
  %10 = call i32 (i8*, ...) @__isoc99_scanf(i8* getelementptr inbounds ([3 x i8], [3 x i8]* @.str, i64 0, i64 0), i32* %2)
  %11 = load i32, i32* %2, align 4
  %12 = sdiv i32 %11, 10000
  store i32 %12, i32* %3, align 4
  %13 = load i32, i32* %2, align 4
  %14 = sdiv i32 %13, 1000
  %15 = load i32, i32* %3, align 4
  %16 = mul nsw i32 %15, 10
  %17 = sub nsw i32 %14, %16
  store i32 %17, i32* %4, align 4
  %18 = load i32, i32* %2, align 4
  %19 = sdiv i32 %18, 100
  %20 = load i32, i32* %3, align 4
  %21 = mul nsw i32 %20, 100
  %22 = sub nsw i32 %19, %21
  %23 = load i32, i32* %4, align 4
  %24 = mul nsw i32 %23, 10
  %25 = sub nsw i32 %22, %24
  store i32 %25, i32* %5, align 4
  %26 = load i32, i32* %2, align 4
  %27 = sdiv i32 %26, 10
  %28 = load i32, i32* %3, align 4
  %29 = mul nsw i32 %28, 1000
  %30 = sub nsw i32 %27, %29
  %31 = load i32, i32* %4, align 4
  %32 = mul nsw i32 %31, 100
  %33 = sub nsw i32 %30, %32
  %34 = load i32, i32* %5, align 4
  %35 = mul nsw i32 %34, 10
  %36 = sub nsw i32 %33, %35
  store i32 %36, i32* %6, align 4
  %37 = load i32, i32* %2, align 4
  %38 = load i32, i32* %3, align 4
  %39 = mul nsw i32 %38, 10000
  %40 = sub nsw i32 %37, %39
  %41 = load i32, i32* %4, align 4
  %42 = mul nsw i32 %41, 1000
  %43 = sub nsw i32 %40, %42
  %44 = load i32, i32* %5, align 4
  %45 = mul nsw i32 %44, 100
  %46 = sub nsw i32 %43, %45
  %47 = load i32, i32* %6, align 4
  %48 = mul nsw i32 %47, 10
  %49 = sub nsw i32 %46, %48
  store i32 %49, i32* %7, align 4
  %50 = load i32, i32* %7, align 4
  %51 = mul nsw i32 %50, 10000
  %52 = load i32, i32* %6, align 4
  %53 = mul nsw i32 %52, 1000
  %54 = add nsw i32 %51, %53
  %55 = load i32, i32* %5, align 4
  %56 = mul nsw i32 %55, 100
  %57 = add nsw i32 %54, %56
  %58 = load i32, i32* %4, align 4
  %59 = mul nsw i32 %58, 10
  %60 = add nsw i32 %57, %59
  %61 = load i32, i32* %3, align 4
  %62 = add nsw i32 %60, %61
  store i32 %62, i32* %8, align 4
  store i32 0, i32* %9, align 4
  br label %63

63:                                               ; preds = %74, %0
  %64 = load i32, i32* %9, align 4
  %65 = icmp slt i32 %64, 4
  br i1 %65, label %66, label %77

66:                                               ; preds = %63
  %67 = load i32, i32* %8, align 4
  %68 = srem i32 %67, 10
  %69 = icmp eq i32 %68, 0
  br i1 %69, label %70, label %73

70:                                               ; preds = %66
  %71 = load i32, i32* %8, align 4
  %72 = sdiv i32 %71, 10
  store i32 %72, i32* %8, align 4
  br label %73

73:                                               ; preds = %70, %66
  br label %74

74:                                               ; preds = %73
  %75 = load i32, i32* %9, align 4
  %76 = add nsw i32 %75, 1
  store i32 %76, i32* %9, align 4
  br label %63

77:                                               ; preds = %63
  %78 = load i32, i32* %8, align 4
  %79 = call i32 (i8*, ...) @printf(i8* getelementptr inbounds ([3 x i8], [3 x i8]* @.str, i64 0, i64 0), i32 %78)
  ret i32 0
}

declare dso_local i32 @__isoc99_scanf(i8*, ...) #1

declare dso_local i32 @printf(i8*, ...) #1


!llvm.module.flags = !{!0}
!llvm.ident = !{!1}

!0 = !{i32 1, !"wchar_size", i32 4}
!1 = !{!"clang version 10.0.0-4ubuntu1 "}
